ccollections
defaultdict
p0
(tRp1
S'0032.jpg'
p2
g0
(tRp3
S'thatch'
p4
g0
(c__builtin__
list
p5
tp6
Rp7
S'single'
p8
(lp9
F1.0
aF1.0
acnumpy.core.multiarray
scalar
p10
(cnumpy
dtype
p11
(S'f8'
p12
I0
I1
tp13
Rp14
(I3
S'<'
p15
NNNI-1
I-1
I0
tp16
bS'5\xf1\xach$\xe0\xcb?'
p17
tp18
Rp19
asS'any'
p20
(lp21
F1.0
aF1.0
aF0.22111111111111112
assS'metal'
p22
g0
(g5
tp23
Rp24
g8
(lp25
g10
(g14
S'|\xc5W|\xc5W\xec?'
p26
tp27
Rp28
aF1.0
ag10
(g14
S';\xa8\x83:\xa8\x83\xea?'
p29
tp30
Rp31
aF1.0
ag10
(g14
S'q=\n\xd7\xa3p\xed?'
p32
tp33
Rp34
ag10
(g14
S'\xf1\xab1\x91\x1e\xa8\xec?'
p35
tp36
Rp37
aF1.0
ag10
(g14
S'H~\xcf\x16\xd6\xc6\xdf?'
p38
tp39
Rp40
ag10
(g14
S'/\xa7\xe0\xe5\x14\xbc\xec?'
p41
tp42
Rp43
ag10
(g14
S'\x18\x86a\x18\x86a\xe8?'
p44
tp45
Rp46
ag10
(g14
S'#,\xf74\xc2r\xef?'
p47
tp48
Rp49
ag10
(g14
S'\x11\x11\x11\x11\x11\x11\xe9?'
p50
tp51
Rp52
aF1.0
ag10
(g14
S'\x89\x88\x88\x88\x88\x88\xe8?'
p53
tp54
Rp55
ag10
(g14
S'UUUUUU\xe5?'
p56
tp57
Rp58
ag10
(g14
S';\xb1\x13;\xb1\x13\xeb?'
p59
tp60
Rp61
ag10
(g14
S'i\xc8\xb9\xcf. \xe6?'
p62
tp63
Rp64
asg20
(lp65
F0.8857142857142857
aF1.0
aF0.8367346938775511
aF1.0
aF0.92
aF0.8955223880597015
aF1.0
aF0.6631776704240472
aF0.8979591836734694
aF0.8614718614718615
aF0.9893899204244032
aF0.8055555555555556
aF1.0
aF1.0
aF0.6666666666666666
aF0.8461538461538461
aF0.7923809523809524
asssS'0036.jpg'
p66
g0
(tRp67
g4
g0
(g5
tp68
Rp69
g8
(lp70
sg20
(lp71
ssg22
g0
(g5
tp72
Rp73
g8
(lp74
g10
(g14
S'\x97Q\x00\xec\xa6U\xc1?'
p75
tp76
Rp77
ag10
(g14
S'\x9b\xb5Y\x9b\xb5Y\xcb?'
p78
tp79
Rp80
ag10
(g14
S'\xfb\xb8\xb0\x8f\x0b\xfb\xc8?'
p81
tp82
Rp83
ag10
(g14
S'\xb4\x04\x90zI\n\xdb?'
p84
tp85
Rp86
ag10
(g14
S'v$\xa7b\x07\x95\xcf?'
p87
tp88
Rp89
ag10
(g14
S'\x15S\xe0\x90mA\xd2?'
p90
tp91
Rp92
ag10
(g14
S'5&\xd2\x03\x95\xb3\xbb?'
p93
tp94
Rp95
ag10
(g14
S'}J^\xc8\xc9,\xcf?'
p96
tp97
Rp98
ag10
(g14
S'\xf6*\\\xd8\xd4\x82\xce?'
p99
tp100
Rp101
ag10
(g14
S'\x163\x84sT\xc2\xb7?'
p102
tp103
Rp104
ag10
(g14
S'\xce\x887#\xde\x8c\xb8?'
p105
tp106
Rp107
ag10
(g14
S'\x00\x17t\xe8\xb9\xff\xb6?'
p108
tp109
Rp110
ag10
(g14
S'\n\xd5\x12\xa0P-\xa9?'
p111
tp112
Rp113
ag10
(g14
S'\xf5`\x898\xda\x96\xad?'
p114
tp115
Rp116
ag10
(g14
S'\xeei\x84\xe5\x9eF\x98?'
p117
tp118
Rp119
aF0.0
ag10
(g14
S'&N\xfd\x9e[\xe2\xb4?'
p120
tp121
Rp122
ag10
(g14
S'c\xc2\xe0;M\x81\xcd?'
p123
tp124
Rp125
ag10
(g14
S'D\x17\xf4\xfc\x1c\xae\xda?'
p126
tp127
Rp128
ag10
(g14
S'\x10\xbaxI\x86\xda\xc7?'
p129
tp130
Rp131
ag10
(g14
S'SSSSSS\xe3?'
p132
tp133
Rp134
ag10
(g14
S'R\xb8\x1e\x85\xebQ\xc8?'
p135
tp136
Rp137
ag10
(g14
S'\x98\xd98\t!\x15\xbb?'
p138
tp139
Rp140
ag10
(g14
S'\xf7\xdf\xa0 Q\xd5\xdc?'
p141
tp142
Rp143
asg20
(lp144
F0.19899626517273575
aF0.21367521367521367
aF0.24695340501792115
aF0.6758515116724072
aF0.2467354995444883
aF0.5806288032454361
aF0.10820895522388059
aF0.8236136689175363
aF0.49265827612509533
aF0.16242696629213482
aF0.0958994708994709
aF0.40188439011968424
aF0.3118534482758621
aF0.2579795075925107
aF0.023706896551724137
aF0.0
aF0.19429824561403508
aF0.37504708097928435
aF0.4168770284890011
aF0.3792134831460674
aF0.6039215686274509
aF0.400625
aF0.20250037999696002
aF0.7893723527146708
asssS'0003.jpg'
p145
g0
(tRp146
g4
g0
(g5
tp147
Rp148
g8
(lp149
F0.0
ag10
(g14
S'\xecQ\xb8\x1e\x85\xeb\xd1?'
p150
tp151
Rp152
ag10
(g14
S'\x8agE#\x01\xdf\xdc?'
p153
tp154
Rp155
aF1.0
aF0.0
ag10
(g14
S'wwwwww\xd7?'
p156
tp157
Rp158
ag10
(g14
S'\x81o^M<+\xda?'
p159
tp160
Rp161
aF0.0
ag10
(g14
S'\x11\x11\x11\x11\x11\x11\xe1?'
p162
tp163
Rp164
ag10
(g14
S'\xear\xfb\x83\x0c\x95\xdd?'
p165
tp166
Rp167
ag10
(g14
S'333333\xe3?'
p168
tp169
Rp170
ag10
(g14
S'0\x96\xfcb\xc9/\xd6?'
p171
tp172
Rp173
ag10
(g14
S'0\x96\xfcb\xc9/\xc6?'
p174
tp175
Rp176
ag10
(g14
S'\x9a\x99\x99\x99\x99\x99\xd9?'
p177
tp178
Rp179
ag10
(g14
S'\x94>\xe9\x93>\xe9\xe3?'
p180
tp181
Rp182
ag10
(g14
S'\xa4p=\n\xd7\xa3\xc0?'
p183
tp184
Rp185
ag10
(g14
S'\x89\x88\x88\x88\x88\x88\xe8?'
p186
tp187
Rp188
aF0.0
aF0.0
ag10
(g14
S'\xde\xdd\xdd\xdd\xdd\xdd\xed?'
p189
tp190
Rp191
aF0.0
asg20
(lp192
F0.0
aF0.28
aF0.45111111111111113
aF1.0
aF0.0
aF0.5144444444444445
aF0.4088888888888889
aF0.0
aF0.5766666666666667
aF0.4622222222222222
aF0.6
aF0.3466666666666667
aF0.17333333333333334
aF0.4
aF0.8555555555555555
aF0.13
aF0.7666666666666667
aF0.0
aF0.0
aF0.9333333333333333
aF0.0
assg22
g0
(g5
tp193
Rp194
g8
(lp195
g10
(g14
S'\x97uY\x97uY\xeb?'
p196
tp197
Rp198
ag10
(g14
S'\x97\x96\x96\x96\x96\x96\xe6?'
p199
tp200
Rp201
ag10
(g14
S'8\x13\x803\x018\xd3?'
p202
tp203
Rp204
ag10
(g14
S'\xe7@\xa2\x156\x07\xd2?'
p205
tp206
Rp207
ag10
(g14
S'v]\xd7u]\xd7\xd3?'
p208
tp209
Rp210
ag10
(g14
S'\x07:m\xa0\xd3\x06\xea?'
p211
tp212
Rp213
aF1.0
ag10
(g14
S'\x00\x00\x00\x00\x00\x00\xee?'
p214
tp215
Rp216
ag10
(g14
S'ffffff\xee?'
p217
tp218
Rp219
asg20
(lp220
F0.8956043956043956
aF0.8602941176470589
aF0.3002932551319648
aF0.6708584842387659
aF0.7518601190476191
aF0.8133333333333334
aF1.0
aF0.967948717948718
aF0.95
asssS'0023.jpg'
p221
g0
(tRp222
g4
g0
(g5
tp223
Rp224
g8
(lp225
g10
(g14
S'\x94>\xe9\x93>\xe9\xd3?'
p226
tp227
Rp228
ag10
(g14
S'333333\xd3?'
p229
tp230
Rp231
ag10
(g14
S'ffffff\xe6?'
p232
tp233
Rp234
ag10
(g14
S'\xc6\x92_,\xf9\xc5\xc2?'
p235
tp236
Rp237
aF1.0
aF1.0
aF1.0
ag10
(g14
S'\x86\xca\x0eS\x97\xdb\xdf?'
p238
tp239
Rp240
aF0.0
ag10
(g14
S'ffffff\xe6?'
p241
tp242
Rp243
ag10
(g14
S'wwwwww\xe7?'
p244
tp245
Rp246
aF1.0
ag10
(g14
S'\xadh$\xe0\x9bW\xc3?'
p247
tp248
Rp249
aF1.0
ag10
(g14
S'\x8agE#\x01\xdf\xec?'
p250
tp251
Rp252
ag10
(g14
S'\x9a\x99\x99\x99\x99\x99\xd9?'
p253
tp254
Rp255
ag10
(g14
S'\xa4p=\n\xd7\xa3\xe0?'
p256
tp257
Rp258
ag10
(g14
S'{\x14\xaeG\xe1z\xc4?'
p259
tp260
Rp261
ag10
(g14
S'\x11\x11\x11\x11\x11\x11\xc1?'
p262
tp263
Rp264
ag10
(g14
S'\xa0\xd3\x06:m\xa0\xb3?'
p265
tp266
Rp267
ag10
(g14
S'5\xf1\xach$\xe0\xcb?'
p268
tp269
Rp270
ag10
(g14
S'ffffff\xe6?'
p271
tp272
Rp273
ag10
(g14
S'\x00\x00\x00\x00\x00\x00\xe0?'
p274
tp275
Rp276
ag10
(g14
S'$\xe0\x9bW\x13\xcf\xea?'
p277
tp278
Rp279
ag10
(g14
S'333333\xe3?'
p280
tp281
Rp282
ag10
(g14
S'\xcd\xcc\xcc\xcc\xcc\xcc\xec?'
p283
tp284
Rp285
asg20
(lp286
F0.3111111111111111
aF0.58
aF0.7
aF0.14666666666666667
aF1.0
aF1.0
aF1.0
aF0.5277777777777778
aF0.0
aF0.7
aF0.7333333333333333
aF1.0
aF0.1511111111111111
aF1.0
aF0.9444444444444444
aF0.7166666666666667
aF0.6977777777777778
aF0.16
aF0.25555555555555554
aF0.07666666666666666
aF0.21777777777777776
aF0.96
aF0.95
aF0.8433333333333334
aF0.8533333333333334
aF0.9
assg22
g0
(g5
tp287
Rp288
g8
(lp289
g10
(g14
S'Zw\x8d\xcb\xbei\xed?'
p290
tp291
Rp292
ag10
(g14
S'\x14\xe2\xac\xfc\x848\xe5?'
p293
tp294
Rp295
ag10
(g14
S'\xe6\xb1\x15A\xc3I\xed?'
p296
tp297
Rp298
ag10
(g14
S'\xb6~\xaa\x05E\x1a\xe5?'
p299
tp300
Rp301
ag10
(g14
S'SJ)\xa5\x94R\xea?'
p302
tp303
Rp304
ag10
(g14
S'\x86\xb7\xec\x9c\x14a\xee?'
p305
tp306
Rp307
ag10
(g14
S'E\xd0pR\xf7\xe5\xe1?'
p308
tp309
Rp310
asg20
(lp311
F0.9440753045404208
aF0.6631493506493507
aF0.9873782906599351
aF0.7424547283702213
aF0.8225806451612904
aF0.9681818181818181
aF0.559322033898305
asssS'0033.jpg'
p312
g0
(tRp313
g4
g0
(g5
tp314
Rp315
g8
(lp316
g10
(g14
S'\xef\xee\xee\xee\xee\xee\xee?'
p317
tp318
Rp319
ag10
(g14
S'333333\xd3?'
p320
tp321
Rp322
ag10
(g14
S'\x9a\x99\x99\x99\x99\x99\xe9?'
p323
tp324
Rp325
ag10
(g14
S'\x11\x11\x11\x11\x11\x11\xb1?'
p326
tp327
Rp328
aF1.0
aF1.0
aF1.0
ag10
(g14
S'<+\x1a\t\xf8\xe6\xb5?'
p329
tp330
Rp331
ag10
(g14
S'""""""\xeb?'
p332
tp333
Rp334
aF0.0
aF1.0
ag10
(g14
S'\xef\xee\xee\xee\xee\xee\xee?'
p335
tp336
Rp337
ag10
(g14
S'\xef\xee\xee\xee\xee\xee\xee?'
p338
tp339
Rp340
asg20
(lp341
F0.9666666666666667
aF0.5722222222222222
aF0.8
aF0.06666666666666667
aF1.0
aF1.0
aF1.0
aF0.08555555555555555
aF0.8833333333333333
aF0.0
aF1.0
aF0.9822222222222222
aF0.9666666666666667
assg22
g0
(g5
tp342
Rp343
g8
(lp344
g10
(g14
S'\xd0\x17\xf4\x05}A\xef?'
p345
tp346
Rp347
aF1.0
ag10
(g14
S'\xc3+\xbc\xc2+\xbc\xde?'
p348
tp349
Rp350
aF1.0
ag10
(g14
S'\xac}\xc3\xda7\xac\xed?'
p351
tp352
Rp353
ag10
(g14
S'\xcf\xf3<\xcf\xf3<\xef?'
p354
tp355
Rp356
aF1.0
ag10
(g14
S'KKKKKK\xeb?'
p357
tp358
Rp359
ag10
(g14
S'\xfd\xb3\xae\xd9\xad"\xe2?'
p360
tp361
Rp362
ag10
(g14
S'?\x82\xfb\x08\xee#\xe8?'
p363
tp364
Rp365
ag10
(g14
S'\xc9Y\xdf\x0bp\x91\xec?'
p366
tp367
Rp368
ag10
(g14
S'=\xcf\xf3<\xcf\xf3\xec?'
p369
tp370
Rp371
ag10
(g14
S'\x1f\x8f"\x98\x12O\xe9?'
p372
tp373
Rp374
ag10
(g14
S'\xe48\x8e\xe38\x0e\xe4?'
p375
tp376
Rp377
ag10
(g14
S'lRM\xbf\xb8&\xe5?'
p378
tp379
Rp380
ag10
(g14
S'\x1c\xc7q\x1c\xc7q\xec?'
p381
tp382
Rp383
aF1.0
asg20
(lp384
F0.9803220035778175
aF1.0
aF0.7483974358974359
aF1.0
aF1.0
aF0.9761904761904762
aF1.0
aF0.8529411764705882
aF0.7510548523206751
aF0.8518518518518519
aF0.8927536231884058
aF0.9047619047619048
aF0.8173147468818782
aF0.7303240740740741
aF0.680891417733523
aF0.9607843137254902
aF1.0
asssS'0019.jpg'
p385
g0
(tRp386
g4
g0
(g5
tp387
Rp388
g8
(lp389
F0.0
aF0.0
ag10
(g14
S'\x11\x11\x11\x11\x11\x11\xc1?'
p390
tp391
Rp392
ag10
(g14
S'\x11\x11\x11\x11\x11\x11\xb1?'
p393
tp394
Rp395
ag10
(g14
S'a\x1f\x17\xf6qa\xdf?'
p396
tp397
Rp398
ag10
(g14
S'\xear\xfb\x83\x0c\x95\xdd?'
p399
tp400
Rp401
ag10
(g14
S'\xbc\xbb\xbb\xbb\xbb\xbb\xdb?'
p402
tp403
Rp404
ag10
(g14
S'\xb8\x1e\x85\xebQ\xb8\xce?'
p405
tp406
Rp407
ag10
(g14
S'\xde\xdd\xdd\xdd\xdd\xdd\xdd?'
p408
tp409
Rp410
ag10
(g14
S'UUUUUU\xb5?'
p411
tp412
Rp413
ag10
(g14
S'\x9a\x99\x99\x99\x99\x99\xe9?'
p414
tp415
Rp416
ag10
(g14
S'$\xe0\x9bW\x13\xcf\xda?'
p417
tp418
Rp419
aF1.0
ag10
(g14
S'UUUUUU\xc5?'
p420
tp421
Rp422
aF0.0
ag10
(g14
S'\xbc\xbb\xbb\xbb\xbb\xbb\xcb?'
p423
tp424
Rp425
ag10
(g14
S'\x9a\x99\x99\x99\x99\x99\xd9?'
p426
tp427
Rp428
ag10
(g14
S'\x11\x11\x11\x11\x11\x11\xe1?'
p429
tp430
Rp431
ag10
(g14
S'\xdf\xbc\x9axV4\xd2?'
p432
tp433
Rp434
ag10
(g14
S'UUUUUU\xc5?'
p435
tp436
Rp437
ag10
(g14
S'UUUUUU\xe5?'
p438
tp439
Rp440
ag10
(g14
S'\x9a\x99\x99\x99\x99\x99\xd9?'
p441
tp442
Rp443
aF0.0
aF0.0
ag10
(g14
S'c\xc9/\x96\xfcb\xd9?'
p444
tp445
Rp446
ag10
(g14
S'\x9a\x99\x99\x99\x99\x99\xd9?'
p447
tp448
Rp449
asg20
(lp450
F0.0
aF0.0
aF0.13333333333333333
aF0.06666666666666667
aF0.49032258064516127
aF0.5244444444444445
aF0.52
aF0.24
aF0.9625
aF0.08333333333333333
aF1.0
aF0.41888888888888887
aF1.0
aF0.3055555555555556
aF0.0
aF0.21666666666666667
aF0.4622222222222222
aF0.5333333333333333
aF0.5177777777777778
aF0.16666666666666666
aF0.7444444444444445
aF0.4111111111111111
aF0.0
aF0.0
aF0.39666666666666667
aF0.4
assg22
g0
(g5
tp451
Rp452
g8
(lp453
g10
(g14
S'\xc4\xf4q\x0e\x926\xd4?'
p454
tp455
Rp456
ag10
(g14
S'\xd8F\xacK\x8f\xf9\xdf?'
p457
tp458
Rp459
ag10
(g14
S'+\x9cv\xd8\xb7\xc2\xe1?'
p460
tp461
Rp462
ag10
(g14
S'\xb7\xe6\x87E\xca\xc0\xb3?'
p463
tp464
Rp465
ag10
(g14
S'Tk\xc2\x01\xea\x92\xd9?'
p466
tp467
Rp468
ag10
(g14
S'\x05W,r\r\xf3\xd0?'
p469
tp470
Rp471
ag10
(g14
S'uP\x07uP\x07\xd5?'
p472
tp473
Rp474
ag10
(g14
S'\x87\xf2\x1a\xcak(\xe7?'
p475
tp476
Rp477
ag10
(g14
S'\x17\xed9\x14\xb5\xf5\xe1?'
p478
tp479
Rp480
ag10
(g14
S'\xe5-\xc0\xe4-\xc0\xe8?'
p481
tp482
Rp483
ag10
(g14
S'\x0c\xbd\xd0\x0b\xbd\xd0\xcf?'
p484
tp485
Rp486
ag10
(g14
S'\xdeI\xc3\xeb\xa36\xe2?'
p487
tp488
Rp489
ag10
(g14
S'(\x839\xa6\x7f2\xd8?'
p490
tp491
Rp492
ag10
(g14
S'5\xd5=\xb6\xbf\x16\xd2?'
p493
tp494
Rp495
ag10
(g14
S'\xf0\xb6\xb2Q\xb0\xaf\xd1?'
p496
tp497
Rp498
ag10
(g14
S'\x94\xa2\x00\x8a=\x89\xd1?'
p499
tp500
Rp501
asg20
(lp502
F0.46669278996865204
aF0.6823899371069182
aF0.555019305019305
aF0.21472663139329806
aF0.46563573883161513
aF0.6301725536863743
aF0.5933747412008281
aF0.8977443609022556
aF0.868630201028518
aF0.7734593837535014
aF0.6501602564102564
aF0.7760210803689065
aF0.3780821917808219
aF0.3011352515169309
aF0.4578305836000985
aF0.27400148846440087
asss.